target datalayout = "e-m:e-p270:32:32-p271:32:32-p272:64:64-i64:64-i128:128-f80:128-n8:16:32:64-S128"
target triple = "x86_64-pc-linux-gnu"

@hf_ntlmssp_NTLM_REMOTE_SUPPLEMENTAL_CREDENTIAL = internal global i32 0, align 4
@ett_ntlmssp_NTLM_REMOTE_SUPPLEMENTAL_CREDENTIAL = internal global i32 0, align 4
@hf_ntlmssp_NTLM_REMOTE_SUPPLEMENTAL_CREDENTIAL_Version = internal global i32 0, align 4
@hf_ntlmssp_NTLM_REMOTE_SUPPLEMENTAL_CREDENTIAL_Flags = internal global i32 0, align 4
@ett_ntlmssp = internal global i32 0, align 4
@hf_ntlmssp_NTLM_REMOTE_SUPPLEMENTAL_CREDENTIAL_CredentialKey = internal global i32 0, align 4
@hf_ntlmssp_NTLM_REMOTE_SUPPLEMENTAL_CREDENTIAL_CredentialKeyType = internal global i32 0, align 4
@hf_ntlmssp_NTLM_REMOTE_SUPPLEMENTAL_CREDENTIAL_EncryptedCredsSize = internal global i32 0, align 4
@hf_ntlmssp_NTLM_REMOTE_SUPPLEMENTAL_CREDENTIAL_EncryptedCreds = internal global i32 0, align 4

; Function Attrs: null_pointer_is_valid sspstrong uwtable
define hidden i32 @dissect_ntlmssp_NTLM_REMOTE_SUPPLEMENTAL_CREDENTIAL(ptr noundef %0, i32 noundef %1, ptr noundef %2) #0 {
  %4 = alloca i32, align 4
  %5 = alloca ptr, align 8
  %6 = alloca i32, align 4
  %7 = alloca ptr, align 8
  %8 = alloca ptr, align 8
  %9 = alloca ptr, align 8
  %10 = alloca i32, align 4
  %11 = alloca i32, align 4
  store ptr %0, ptr %5, align 8
  store i32 %1, ptr %6, align 4
  store ptr %2, ptr %7, align 8
  call void @llvm.lifetime.start.p0(i64 8, ptr %8) #17
  call void @llvm.lifetime.start.p0(i64 8, ptr %9) #17
  call void @llvm.lifetime.start.p0(i64 4, ptr %10) #17
  %12 = load ptr, ptr %5, align 8
  %13 = call i32 @tvb_captured_length(ptr noundef %12)
  %14 = icmp ult i32 %13, 36
  br i1 %14, label %15, label %17

15:                                               ; preds = %3
  %16 = load i32, ptr %6, align 4
  store i32 %16, ptr %4, align 4
  store i32 1, ptr %11, align 4
  br label %88

17:                                               ; preds = %3
  %18 = load ptr, ptr %7, align 8
  %19 = load i32, ptr @hf_ntlmssp_NTLM_REMOTE_SUPPLEMENTAL_CREDENTIAL, align 4
  %20 = load ptr, ptr %5, align 8
  %21 = load i32, ptr %6, align 4
  %22 = call ptr @proto_tree_add_item(ptr noundef %18, i32 noundef %19, ptr noundef %20, i32 noundef %21, i32 noundef -1, i32 noundef 0)
  store ptr %22, ptr %8, align 8
  %23 = load ptr, ptr %8, align 8
  %24 = load i32, ptr @ett_ntlmssp_NTLM_REMOTE_SUPPLEMENTAL_CREDENTIAL, align 4
  %25 = call ptr @proto_item_add_subtree(ptr noundef %23, i32 noundef %24)
  store ptr %25, ptr %9, align 8
  %26 = load ptr, ptr %9, align 8
  %27 = load i32, ptr @hf_ntlmssp_NTLM_REMOTE_SUPPLEMENTAL_CREDENTIAL_Version, align 4
  %28 = load ptr, ptr %5, align 8
  %29 = load i32, ptr %6, align 4
  %30 = call ptr @proto_tree_add_item(ptr noundef %26, i32 noundef %27, ptr noundef %28, i32 noundef %29, i32 noundef 4, i32 noundef -2147483648)
  %31 = load i32, ptr %6, align 4
  %32 = add i32 %31, 4
  store i32 %32, ptr %6, align 4
  %33 = load ptr, ptr %9, align 8
  %34 = load ptr, ptr %5, align 8
  %35 = load i32, ptr %6, align 4
  %36 = load i32, ptr @hf_ntlmssp_NTLM_REMOTE_SUPPLEMENTAL_CREDENTIAL_Flags, align 4
  %37 = load i32, ptr @ett_ntlmssp, align 4
  %38 = call ptr @proto_tree_add_bitmask(ptr noundef %33, ptr noundef %34, i32 noundef %35, i32 noundef %36, i32 noundef %37, ptr noundef @MSV1_0_CRED_FLAGS_bits, i32 noundef -2147483648)
  %39 = load i32, ptr %6, align 4
  %40 = add i32 %39, 4
  store i32 %40, ptr %6, align 4
  %41 = load ptr, ptr %9, align 8
  %42 = load i32, ptr @hf_ntlmssp_NTLM_REMOTE_SUPPLEMENTAL_CREDENTIAL_CredentialKey, align 4
  %43 = load ptr, ptr %5, align 8
  %44 = load i32, ptr %6, align 4
  %45 = call ptr @proto_tree_add_item(ptr noundef %41, i32 noundef %42, ptr noundef %43, i32 noundef %44, i32 noundef 20, i32 noundef 0)
  %46 = load i32, ptr %6, align 4
  %47 = add i32 %46, 20
  store i32 %47, ptr %6, align 4
  %48 = load ptr, ptr %9, align 8
  %49 = load i32, ptr @hf_ntlmssp_NTLM_REMOTE_SUPPLEMENTAL_CREDENTIAL_CredentialKeyType, align 4
  %50 = load ptr, ptr %5, align 8
  %51 = load i32, ptr %6, align 4
  %52 = call ptr @proto_tree_add_item(ptr noundef %48, i32 noundef %49, ptr noundef %50, i32 noundef %51, i32 noundef 4, i32 noundef -2147483648)
  %53 = load i32, ptr %6, align 4
  %54 = add i32 %53, 4
  store i32 %54, ptr %6, align 4
  %55 = load ptr, ptr %5, align 8
  %56 = load i32, ptr %6, align 4
  %57 = call i32 @tvb_get_letohl(ptr noundef %55, i32 noundef %56)
  store i32 %57, ptr %10, align 4
  %58 = load ptr, ptr %9, align 8
  %59 = load i32, ptr @hf_ntlmssp_NTLM_REMOTE_SUPPLEMENTAL_CREDENTIAL_EncryptedCredsSize, align 4
  %60 = load ptr, ptr %5, align 8
  %61 = load i32, ptr %6, align 4
  %62 = call ptr @proto_tree_add_item(ptr noundef %58, i32 noundef %59, ptr noundef %60, i32 noundef %61, i32 noundef 4, i32 noundef -2147483648)
  %63 = load i32, ptr %6, align 4
  %64 = add i32 %63, 4
  store i32 %64, ptr %6, align 4
  %65 = load i32, ptr %10, align 4
  %66 = icmp eq i32 %65, 0
  br i1 %66, label %67, label %69

67:                                               ; preds = %17
  %68 = load i32, ptr %6, align 4
  store i32 %68, ptr %4, align 4
  store i32 1, ptr %11, align 4
  br label %88

69:                                               ; preds = %17
  %70 = load ptr, ptr %5, align 8
  %71 = call i32 @tvb_captured_length(ptr noundef %70)
  %72 = load i32, ptr %10, align 4
  %73 = add i32 36, %72
  %74 = icmp ult i32 %71, %73
  br i1 %74, label %75, label %77

75:                                               ; preds = %69
  %76 = load i32, ptr %6, align 4
  store i32 %76, ptr %4, align 4
  store i32 1, ptr %11, align 4
  br label %88

77:                                               ; preds = %69
  %78 = load ptr, ptr %9, align 8
  %79 = load i32, ptr @hf_ntlmssp_NTLM_REMOTE_SUPPLEMENTAL_CREDENTIAL_EncryptedCreds, align 4
  %80 = load ptr, ptr %5, align 8
  %81 = load i32, ptr %6, align 4
  %82 = load i32, ptr %10, align 4
  %83 = call ptr @proto_tree_add_item(ptr noundef %78, i32 noundef %79, ptr noundef %80, i32 noundef %81, i32 noundef %82, i32 noundef 0)
  %84 = load i32, ptr %10, align 4
  %85 = load i32, ptr %6, align 4
  %86 = add i32 %85, %84
  store i32 %86, ptr %6, align 4
  %87 = load i32, ptr %6, align 4
  store i32 %87, ptr %4, align 4
  store i32 1, ptr %11, align 4
  br label %88

88:                                               ; preds = %77, %75, %67, %15
  call void @llvm.lifetime.end.p0(i64 4, ptr %10) #17
  call void @llvm.lifetime.end.p0(i64 8, ptr %9) #17
  call void @llvm.lifetime.end.p0(i64 8, ptr %8) #17
  %89 = load i32, ptr %4, align 4
  ret i32 %89
}