; Function Attrs: null_pointer_is_valid sspstrong uwtable
define hidden i32 @dissect_ntlmssp_NTLM_REMOTE_SUPPLEMENTAL_CREDENTIAL(ptr noundef %0, i32 noundef %1, ptr noundef %2) local_unnamed_addr #0 {
  %4 = tail call i32 @tvb_captured_length(ptr noundef %0)
  %5 = icmp ult i32 %4, 36
  br i1 %5, label %37, label %6

6:                                                ; preds = %3
  %7 = load i32, ptr @hf_ntlmssp_NTLM_REMOTE_SUPPLEMENTAL_CREDENTIAL, align 4
  %8 = tail call ptr @proto_tree_add_item(ptr noundef %2, i32 noundef %7, ptr noundef %0, i32 noundef %1, i32 noundef -1, i32 noundef 0)
  %9 = load i32, ptr @ett_ntlmssp_NTLM_REMOTE_SUPPLEMENTAL_CREDENTIAL, align 4
  %10 = tail call ptr @proto_item_add_subtree(ptr noundef %8, i32 noundef %9)
  %11 = load i32, ptr @hf_ntlmssp_NTLM_REMOTE_SUPPLEMENTAL_CREDENTIAL_Version, align 4
  %12 = tail call ptr @proto_tree_add_item(ptr noundef %10, i32 noundef %11, ptr noundef %0, i32 noundef %1, i32 noundef 4, i32 noundef -2147483648)
  %13 = add i32 %1, 4
  %14 = load i32, ptr @hf_ntlmssp_NTLM_REMOTE_SUPPLEMENTAL_CREDENTIAL_Flags, align 4
  %15 = load i32, ptr @ett_ntlmssp, align 4
  %16 = tail call ptr @proto_tree_add_bitmask(ptr noundef %10, ptr noundef %0, i32 noundef %13, i32 noundef %14, i32 noundef %15, ptr noundef nonnull @MSV1_0_CRED_FLAGS_bits, i32 noundef -2147483648)
  %17 = add i32 %1, 8
  %18 = load i32, ptr @hf_ntlmssp_NTLM_REMOTE_SUPPLEMENTAL_CREDENTIAL_CredentialKey, align 4
  %19 = tail call ptr @proto_tree_add_item(ptr noundef %10, i32 noundef %18, ptr noundef %0, i32 noundef %17, i32 noundef 20, i32 noundef 0)
  %20 = add i32 %1, 28
  %21 = load i32, ptr @hf_ntlmssp_NTLM_REMOTE_SUPPLEMENTAL_CREDENTIAL_CredentialKeyType, align 4
  %22 = tail call ptr @proto_tree_add_item(ptr noundef %10, i32 noundef %21, ptr noundef %0, i32 noundef %20, i32 noundef 4, i32 noundef -2147483648)
  %23 = add i32 %1, 32
  %24 = tail call i32 @tvb_get_letohl(ptr noundef %0, i32 noundef %23)
  %25 = load i32, ptr @hf_ntlmssp_NTLM_REMOTE_SUPPLEMENTAL_CREDENTIAL_EncryptedCredsSize, align 4
  %26 = tail call ptr @proto_tree_add_item(ptr noundef %10, i32 noundef %25, ptr noundef %0, i32 noundef %23, i32 noundef 4, i32 noundef -2147483648)
  %27 = add i32 %1, 36
  %28 = icmp eq i32 %24, 0
  br i1 %28, label %37, label %29

29:                                               ; preds = %6
  %30 = tail call i32 @tvb_captured_length(ptr noundef %0)
  %31 = add i32 %24, 36
  %32 = icmp ult i32 %30, %31
  br i1 %32, label %37, label %33

33:                                               ; preds = %29
  %34 = load i32, ptr @hf_ntlmssp_NTLM_REMOTE_SUPPLEMENTAL_CREDENTIAL_EncryptedCreds, align 4
  %35 = tail call ptr @proto_tree_add_item(ptr noundef %10, i32 noundef %34, ptr noundef %0, i32 noundef %27, i32 noundef %24, i32 noundef 0)
  %36 = add i32 %24, %27
  br label %37

37:                                               ; preds = %29, %6, %3, %33
  %.0 = phi i32 [ %36, %33 ], [ %1, %3 ], [ %27, %6 ], [ %27, %29 ]
  ret i32 %.0
}